target datalayout = "e-m:e-p270:32:32-p271:32:32-p272:64:64-i64:64-i128:128-f80:128-n8:16:32:64-S128"
target triple = "x86_64-pc-linux-gnu"

%struct.timeval = type { i64, i64 }
%struct.event = type { %struct.event_callback, %union.anon.1, i32, ptr, %union.anon.3, i16, i16, %struct.timeval }
%struct.event_callback = type { %struct.anon.0, i16, i8, i8, %union.anon, ptr }
%struct.anon.0 = type { ptr, ptr }
%union.anon = type { ptr }
%union.anon.1 = type { %struct.anon.2 }
%struct.anon.2 = type { ptr, ptr }
%union.anon.3 = type { %struct.anon.4 }
%struct.anon.4 = type { %struct.anon.5, %struct.timeval }
%struct.anon.5 = type { ptr, ptr }

@allow_new_conns = internal global i8 1, align 1
@main_base = internal global ptr null, align 8
@__const.maxconns_handler.t = private unnamed_addr constant %struct.timeval { i64 0, i64 10000 }, align 8
@maxconnsevent = internal global %struct.event zeroinitializer, align 8

; Function Attrs: nounwind uwtable
define internal void @maxconns_handler(i32 noundef %0, i16 noundef signext %1, ptr noundef %2) #0 {
  %4 = alloca i32, align 4
  %5 = alloca i16, align 2
  %6 = alloca ptr, align 8
  %7 = alloca %struct.timeval, align 8
  store i32 %0, ptr %4, align 4, !tbaa !8
  store i16 %1, ptr %5, align 2, !tbaa !79
  store ptr %2, ptr %6, align 8, !tbaa !68
  call void @llvm.lifetime.start.p0(i64 16, ptr %7) #15
  call void @llvm.memcpy.p0.p0.i64(ptr align 8 %7, ptr align 8 @__const.maxconns_handler.t, i64 16, i1 false)
  %8 = load i32, ptr %4, align 4, !tbaa !8
  %9 = icmp eq i32 %8, -42
  br i1 %9, label %15, label %10

10:                                               ; preds = %3
  %11 = load volatile i8, ptr @allow_new_conns, align 1, !tbaa !57, !range !59, !noundef !60
  %12 = trunc i8 %11 to i1
  %13 = zext i1 %12 to i32
  %14 = icmp eq i32 %13, 0
  br i1 %14, label %15, label %19

15:                                               ; preds = %10, %3
  call void @event_set(ptr noundef @maxconnsevent, i32 noundef -1, i16 noundef signext 0, ptr noundef @maxconns_handler, ptr noundef null)
  %16 = load ptr, ptr @main_base, align 8, !tbaa !106
  %17 = call i32 @event_base_set(ptr noundef %16, ptr noundef @maxconnsevent)
  %18 = call i32 @event_add(ptr noundef @maxconnsevent, ptr noundef %7)
  br label %21

19:                                               ; preds = %10
  %20 = call i32 @event_del(ptr noundef @maxconnsevent)
  call void @accept_new_conns(i1 noundef zeroext true)
  br label %21

21:                                               ; preds = %19, %15
  call void @llvm.lifetime.end.p0(i64 16, ptr %7) #15
  ret void
}