; Function Attrs: nounwind uwtable
define internal void @maxconns_handler(i32 noundef %0, i16 signext %1, ptr readnone captures(none) %2) #1 {
  %4 = alloca %struct.timeval, align 8
  call void @llvm.lifetime.start.p0(i64 16, ptr nonnull %4) #34
  call void @llvm.memcpy.p0.p0.i64(ptr noundef nonnull align 8 dereferenceable(16) %4, ptr noundef nonnull align 8 dereferenceable(16) @__const.maxconns_handler.t, i64 16, i1 false)
  %5 = icmp eq i32 %0, -42
  br i1 %5, label %9, label %6

6:                                                ; preds = %3
  %7 = load volatile i8, ptr @allow_new_conns, align 1, !tbaa !160, !range !60, !noundef !61
  %8 = icmp eq i8 %7, 0
  br i1 %8, label %9, label %13

9:                                                ; preds = %6, %3
  tail call void @event_set(ptr noundef nonnull @maxconnsevent, i32 noundef -1, i16 noundef signext 0, ptr noundef nonnull @maxconns_handler, ptr noundef null) #34
  %10 = load ptr, ptr @main_base, align 8, !tbaa !325
  %11 = tail call i32 @event_base_set(ptr noundef %10, ptr noundef nonnull @maxconnsevent) #34
  %12 = call i32 @event_add(ptr noundef nonnull @maxconnsevent, ptr noundef nonnull %4) #34
  br label %15

13:                                               ; preds = %6
  %14 = tail call i32 @event_del(ptr noundef nonnull @maxconnsevent) #34
  tail call void @accept_new_conns(i1 noundef zeroext true) #34
  br label %15

15:                                               ; preds = %13, %9
  call void @llvm.lifetime.end.p0(i64 16, ptr nonnull %4) #34
  ret void
}